target datalayout = "e-m:e-p270:32:32-p271:32:32-p272:64:64-i64:64-i128:128-f80:128-n8:16:32:64-S128"
target triple = "x86_64-pc-linux-gnu"

%class.btQuantizedBvh = type <{ ptr, %class.btVector3, %class.btVector3, %class.btVector3, i32, i32, i8, [7 x i8], %class.btAlignedObjectArray, %class.btAlignedObjectArray, %class.btAlignedObjectArray.0, %class.btAlignedObjectArray.0, i32, [4 x i8], %class.btAlignedObjectArray.2, i32, [4 x i8] }>
%class.btVector3 = type { [4 x float] }
%class.btAlignedObjectArray = type <{ [4 x i8], i32, i32, [4 x i8], ptr, i8, [7 x i8] }>
%class.btAlignedObjectArray.0 = type <{ [4 x i8], i32, i32, [4 x i8], ptr, i8, [7 x i8] }>
%class.btAlignedObjectArray.2 = type <{ [4 x i8], i32, i32, [4 x i8], ptr, i8, [7 x i8] }>
%struct.btQuantizedBvhNode = type { [3 x i16], [3 x i16], i32 }
%struct.btOptimizedBvhNode = type { %class.btVector3, %class.btVector3, i32, i32, i32, [20 x i8] }

; Function Attrs: inlinehint mustprogress nounwind uwtable
define linkonce_odr dso_local noundef nonnull align 4 dereferenceable(64) ptr @_ZN20btAlignedObjectArrayI18btOptimizedBvhNodeEixEi(ptr noundef nonnull align 8 dereferenceable(25) %0, i32 noundef %1) #3 comdat align 2 {
  %3 = alloca ptr, align 8
  %4 = alloca i32, align 4
  store ptr %0, ptr %3, align 8, !tbaa !37
  store i32 %1, ptr %4, align 4, !tbaa !9
  %5 = load ptr, ptr %3, align 8
  %6 = getelementptr inbounds nuw %class.btAlignedObjectArray, ptr %5, i32 0, i32 4
  %7 = load ptr, ptr %6, align 8, !tbaa !88
  %8 = load i32, ptr %4, align 4, !tbaa !9
  %9 = sext i32 %8 to i64
  %10 = getelementptr inbounds %struct.btOptimizedBvhNode, ptr %7, i64 %9
  ret ptr %10
}

; Function Attrs: inlinehint mustprogress nounwind uwtable
define linkonce_odr dso_local noundef nonnull align 4 dereferenceable(16) ptr @_ZN20btAlignedObjectArrayI18btQuantizedBvhNodeEixEi(ptr noundef nonnull align 8 dereferenceable(25) %0, i32 noundef %1) #3 comdat align 2 {
  %3 = alloca ptr, align 8
  %4 = alloca i32, align 4
  store ptr %0, ptr %3, align 8, !tbaa !39
  store i32 %1, ptr %4, align 4, !tbaa !9
  %5 = load ptr, ptr %3, align 8
  %6 = getelementptr inbounds nuw %class.btAlignedObjectArray.0, ptr %5, i32 0, i32 4
  %7 = load ptr, ptr %6, align 8, !tbaa !56
  %8 = load i32, ptr %4, align 4, !tbaa !9
  %9 = sext i32 %8 to i64
  %10 = getelementptr inbounds %struct.btQuantizedBvhNode, ptr %7, i64 %9
  ret ptr %10
}

; Function Attrs: mustprogress uwtable
define dso_local void @_ZN14btQuantizedBvh30assignInternalNodeFromLeafNodeEii(ptr noundef nonnull align 8 dereferenceable(244) %0, i32 noundef %1, i32 noundef %2) #2 align 2 {
  %4 = alloca ptr, align 8
  %5 = alloca i32, align 4
  %6 = alloca i32, align 4
  store ptr %0, ptr %4, align 8, !tbaa !12
  store i32 %1, ptr %5, align 4, !tbaa !9
  store i32 %2, ptr %6, align 4, !tbaa !9
  %7 = load ptr, ptr %4, align 8
  %8 = getelementptr inbounds nuw %class.btQuantizedBvh, ptr %7, i32 0, i32 6
  %9 = load i8, ptr %8, align 8, !tbaa !30, !range !45, !noundef !46
  %10 = trunc i8 %9 to i1
  br i1 %10, label %11, label %18

11:                                               ; preds = %3
  %12 = getelementptr inbounds nuw %class.btQuantizedBvh, ptr %7, i32 0, i32 10
  %13 = load i32, ptr %6, align 4, !tbaa !9
  %14 = call noundef nonnull align 4 dereferenceable(16) ptr @_ZN20btAlignedObjectArrayI18btQuantizedBvhNodeEixEi(ptr noundef nonnull align 8 dereferenceable(25) %12, i32 noundef %13)
  %15 = getelementptr inbounds nuw %class.btQuantizedBvh, ptr %7, i32 0, i32 11
  %16 = load i32, ptr %5, align 4, !tbaa !9
  %17 = call noundef nonnull align 4 dereferenceable(16) ptr @_ZN20btAlignedObjectArrayI18btQuantizedBvhNodeEixEi(ptr noundef nonnull align 8 dereferenceable(25) %15, i32 noundef %16)
  call void @llvm.memcpy.p0.p0.i64(ptr align 4 %17, ptr align 4 %14, i64 16, i1 false), !tbaa.struct !57
  br label %25

18:                                               ; preds = %3
  %19 = getelementptr inbounds nuw %class.btQuantizedBvh, ptr %7, i32 0, i32 8
  %20 = load i32, ptr %6, align 4, !tbaa !9
  %21 = call noundef nonnull align 4 dereferenceable(64) ptr @_ZN20btAlignedObjectArrayI18btOptimizedBvhNodeEixEi(ptr noundef nonnull align 8 dereferenceable(25) %19, i32 noundef %20)
  %22 = getelementptr inbounds nuw %class.btQuantizedBvh, ptr %7, i32 0, i32 9
  %23 = load i32, ptr %5, align 4, !tbaa !9
  %24 = call noundef nonnull align 4 dereferenceable(64) ptr @_ZN20btAlignedObjectArrayI18btOptimizedBvhNodeEixEi(ptr noundef nonnull align 8 dereferenceable(25) %22, i32 noundef %23)
  call void @llvm.memcpy.p0.p0.i64(ptr align 4 %24, ptr align 4 %21, i64 64, i1 false), !tbaa.struct !71
  br label %25

25:                                               ; preds = %18, %11
  ret void
}